target datalayout = "e-m:e-p270:32:32-p271:32:32-p272:64:64-i64:64-i128:128-f80:128-n8:16:32:64-S128"
target triple = "x86_64-pc-linux-gnu"

%"class.llvm::SmallVectorBase" = type { ptr, i32, i32 }
%"class.llvm::DwarfUnit" = type { %"class.llvm::DIEUnit", i32, ptr, %"class.llvm::BumpPtrAllocatorImpl", ptr, ptr, ptr, ptr, ptr, ptr, %"class.llvm::DenseMap", %"class.std::vector", %"class.std::vector.16", %"class.llvm::DenseMap.21" }
%"class.llvm::DIEUnit" = type { ptr, %"class.llvm::DIE", ptr, i64 }
%"class.llvm::DIE" = type { %"struct.llvm::IntrusiveBackListNode", %"class.llvm::DIEValueList", i32, i32, i32, i16, i8, %"class.llvm::IntrusiveBackList.0", %"class.llvm::PointerUnion" }
%"struct.llvm::IntrusiveBackListNode" = type { %"class.llvm::PointerIntPair" }
%"class.llvm::PointerIntPair" = type { %"struct.llvm::detail::PunnedPointer" }
%"struct.llvm::detail::PunnedPointer" = type { [8 x i8] }
%"class.llvm::DIEValueList" = type { %"class.llvm::IntrusiveBackList" }
%"class.llvm::IntrusiveBackList" = type { %"struct.llvm::IntrusiveBackListBase" }
%"struct.llvm::IntrusiveBackListBase" = type { ptr }
%"class.llvm::IntrusiveBackList.0" = type { %"struct.llvm::IntrusiveBackListBase" }
%"class.llvm::PointerUnion" = type { %"class.llvm::pointer_union_detail::PointerUnionMembers" }
%"class.llvm::pointer_union_detail::PointerUnionMembers" = type { %"class.llvm::pointer_union_detail::PointerUnionMembers.1" }
%"class.llvm::pointer_union_detail::PointerUnionMembers.1" = type { %"class.llvm::pointer_union_detail::PointerUnionMembers.2" }
%"class.llvm::pointer_union_detail::PointerUnionMembers.2" = type { %"class.llvm::PointerIntPair.3" }
%"class.llvm::PointerIntPair.3" = type { %"struct.llvm::detail::PunnedPointer.4" }
%"struct.llvm::detail::PunnedPointer.4" = type { [8 x i8] }
%"class.llvm::BumpPtrAllocatorImpl" = type { ptr, ptr, %"class.llvm::SmallVector.6", %"class.llvm::SmallVector.11", i64, i64 }
%"class.llvm::SmallVector.6" = type { %"class.llvm::SmallVectorImpl.7", %"struct.llvm::SmallVectorStorage.10" }
%"class.llvm::SmallVectorImpl.7" = type { %"class.llvm::SmallVectorTemplateBase.8" }
%"class.llvm::SmallVectorTemplateBase.8" = type { %"class.llvm::SmallVectorTemplateCommon.9" }
%"class.llvm::SmallVectorTemplateCommon.9" = type { %"class.llvm::SmallVectorBase" }
%"struct.llvm::SmallVectorStorage.10" = type { [32 x i8] }
%"class.llvm::SmallVector.11" = type { %"class.llvm::SmallVectorImpl.12" }
%"class.llvm::SmallVectorImpl.12" = type { %"class.llvm::SmallVectorTemplateBase.13" }
%"class.llvm::SmallVectorTemplateBase.13" = type { %"class.llvm::SmallVectorTemplateCommon.14" }
%"class.llvm::SmallVectorTemplateCommon.14" = type { %"class.llvm::SmallVectorBase" }
%"class.llvm::DenseMap" = type <{ ptr, i32, i32, i32, [4 x i8] }>
%"class.std::vector" = type { %"struct.std::_Vector_base" }
%"struct.std::_Vector_base" = type { %"struct.std::_Vector_base<llvm::DIEBlock *, std::allocator<llvm::DIEBlock *>>::_Vector_impl" }
%"struct.std::_Vector_base<llvm::DIEBlock *, std::allocator<llvm::DIEBlock *>>::_Vector_impl" = type { %"struct.std::_Vector_base<llvm::DIEBlock *, std::allocator<llvm::DIEBlock *>>::_Vector_impl_data" }
%"struct.std::_Vector_base<llvm::DIEBlock *, std::allocator<llvm::DIEBlock *>>::_Vector_impl_data" = type { ptr, ptr, ptr }
%"class.std::vector.16" = type { %"struct.std::_Vector_base.17" }
%"struct.std::_Vector_base.17" = type { %"struct.std::_Vector_base<llvm::DIELoc *, std::allocator<llvm::DIELoc *>>::_Vector_impl" }
%"struct.std::_Vector_base<llvm::DIELoc *, std::allocator<llvm::DIELoc *>>::_Vector_impl" = type { %"struct.std::_Vector_base<llvm::DIELoc *, std::allocator<llvm::DIELoc *>>::_Vector_impl_data" }
%"struct.std::_Vector_base<llvm::DIELoc *, std::allocator<llvm::DIELoc *>>::_Vector_impl_data" = type { ptr, ptr, ptr }
%"class.llvm::DenseMap.21" = type <{ ptr, i32, i32, i32, [4 x i8] }>

; Function Attrs: mustprogress nounwind uwtable
define dso_local void @_ZN4llvm16DwarfCompileUnit15attachLowHighPCERNS_3DIEEPKNS_8MCSymbolES5_(ptr noundef nonnull align 8 dereferenceable(696) %0, ptr noundef nonnull align 8 dereferenceable(48) %1, ptr noundef %2, ptr noundef %3) #1 align 2 {
  %5 = alloca ptr, align 8
  %6 = alloca ptr, align 8
  %7 = alloca ptr, align 8
  %8 = alloca ptr, align 8
  store ptr %0, ptr %5, align 8
  store ptr %1, ptr %6, align 8
  store ptr %2, ptr %7, align 8
  store ptr %3, ptr %8, align 8
  %9 = load ptr, ptr %5, align 8
  %10 = load ptr, ptr %6, align 8
  %11 = load ptr, ptr %7, align 8
  call void @_ZN4llvm16DwarfCompileUnit15addLabelAddressERNS_3DIEENS_5dwarf9AttributeEPKNS_8MCSymbolE(ptr noundef nonnull align 8 dereferenceable(696) %9, ptr noundef nonnull align 8 dereferenceable(48) %10, i16 noundef zeroext 17, ptr noundef %11)
  %12 = getelementptr inbounds nuw %"class.llvm::DwarfUnit", ptr %9, i32 0, i32 7
  %13 = load ptr, ptr %12, align 8
  %14 = call noundef zeroext i16 @_ZNK4llvm10DwarfDebug15getDwarfVersionEv(ptr noundef nonnull align 8 dereferenceable(5828) %13)
  %15 = zext i16 %14 to i32
  %16 = icmp slt i32 %15, 4
  br i1 %16, label %17, label %20

17:                                               ; preds = %4
  %18 = load ptr, ptr %6, align 8
  %19 = load ptr, ptr %8, align 8
  call void @_ZN4llvm16DwarfCompileUnit15addLabelAddressERNS_3DIEENS_5dwarf9AttributeEPKNS_8MCSymbolE(ptr noundef nonnull align 8 dereferenceable(696) %9, ptr noundef nonnull align 8 dereferenceable(48) %18, i16 noundef zeroext 18, ptr noundef %19)
  br label %25

20:                                               ; preds = %4
  %21 = load ptr, ptr %6, align 8
  %22 = getelementptr inbounds i8, ptr %21, i64 8
  %23 = load ptr, ptr %8, align 8
  %24 = load ptr, ptr %7, align 8
  call void @_ZN4llvm9DwarfUnit13addLabelDeltaERNS_12DIEValueListENS_5dwarf9AttributeEPKNS_8MCSymbolES7_(ptr noundef nonnull align 8 dereferenceable(328) %9, ptr noundef nonnull align 8 dereferenceable(8) %22, i16 noundef zeroext 18, ptr noundef %23, ptr noundef %24)
  br label %25

25:                                               ; preds = %20, %17
  ret void
}