; Function Attrs: mustprogress nounwind uwtable
define dso_local void @_ZN4llvm16DwarfCompileUnit15attachLowHighPCERNS_3DIEEPKNS_8MCSymbolES5_(ptr noundef nonnull align 8 dereferenceable(696) %0, ptr noundef nonnull align 8 dereferenceable(48) %1, ptr noundef %2, ptr noundef %3) local_unnamed_addr #0 align 2 {
  tail call void @_ZN4llvm16DwarfCompileUnit15addLabelAddressERNS_3DIEENS_5dwarf9AttributeEPKNS_8MCSymbolE(ptr noundef nonnull align 8 dereferenceable(696) %0, ptr noundef nonnull align 8 dereferenceable(48) %1, i16 noundef zeroext 17, ptr noundef %2)
  %5 = getelementptr inbounds nuw i8, ptr %0, i64 208
  %6 = load ptr, ptr %5, align 8
  %7 = tail call noundef zeroext i16 @_ZNK4llvm10DwarfDebug15getDwarfVersionEv(ptr noundef nonnull align 8 dereferenceable(5828) %6) #23
  %8 = icmp ult i16 %7, 4
  br i1 %8, label %9, label %10

9:                                                ; preds = %4
  tail call void @_ZN4llvm16DwarfCompileUnit15addLabelAddressERNS_3DIEENS_5dwarf9AttributeEPKNS_8MCSymbolE(ptr noundef nonnull align 8 dereferenceable(696) %0, ptr noundef nonnull align 8 dereferenceable(48) %1, i16 noundef zeroext 18, ptr noundef %3)
  br label %12

10:                                               ; preds = %4
  %11 = getelementptr inbounds nuw i8, ptr %1, i64 8
  tail call void @_ZN4llvm9DwarfUnit13addLabelDeltaERNS_12DIEValueListENS_5dwarf9AttributeEPKNS_8MCSymbolES7_(ptr noundef nonnull align 8 dereferenceable(328) %0, ptr noundef nonnull align 8 dereferenceable(8) %11, i16 noundef zeroext 18, ptr noundef %3, ptr noundef %2) #23
  br label %12

12:                                               ; preds = %10, %9
  ret void
}